target datalayout = "e-m:e-p270:32:32-p271:32:32-p272:64:64-i64:64-i128:128-f80:128-n8:16:32:64-S128"
target triple = "x86_64-pc-linux-gnu"

; Function Attrs: inlinehint nounwind uwtable
define internal i32 @rnd_avg32(i32 noundef %0, i32 noundef %1) #6 {
  %3 = alloca i32, align 4
  %4 = alloca i32, align 4
  store i32 %0, ptr %3, align 4, !tbaa !38
  store i32 %1, ptr %4, align 4, !tbaa !38
  %5 = load i32, ptr %3, align 4, !tbaa !38
  %6 = load i32, ptr %4, align 4, !tbaa !38
  %7 = or i32 %5, %6
  %8 = zext i32 %7 to i64
  %9 = load i32, ptr %3, align 4, !tbaa !38
  %10 = load i32, ptr %4, align 4, !tbaa !38
  %11 = xor i32 %9, %10
  %12 = zext i32 %11 to i64
  %13 = and i64 %12, -16843010
  %14 = lshr i64 %13, 1
  %15 = sub i64 %8, %14
  %16 = trunc i64 %15 to i32
  ret i32 %16
}

; Function Attrs: nounwind uwtable
define internal void @avg_pixels16x16_c(ptr noundef %0, ptr noundef %1, i64 noundef %2, i32 noundef %3) #1 {
  %5 = alloca ptr, align 8
  %6 = alloca ptr, align 8
  %7 = alloca i64, align 8
  %8 = alloca i32, align 4
  %9 = alloca i32, align 4
  store ptr %0, ptr %5, align 8, !tbaa !45
  store ptr %1, ptr %6, align 8, !tbaa !45
  store i64 %2, ptr %7, align 8, !tbaa !47
  store i32 %3, ptr %8, align 4, !tbaa !38
  call void @llvm.lifetime.start.p0(i64 4, ptr %9) #7
  store i32 0, ptr %9, align 4, !tbaa !38
  br label %10

10:                                               ; preds = %53, %4
  %11 = load i32, ptr %9, align 4, !tbaa !38
  %12 = icmp slt i32 %11, 16
  br i1 %12, label %13, label %56

13:                                               ; preds = %10
  %14 = load ptr, ptr %5, align 8, !tbaa !45
  %15 = load i32, ptr %14, align 4, !tbaa !38
  %16 = load ptr, ptr %6, align 8, !tbaa !45
  %17 = load i32, ptr %16, align 1, !tbaa !50
  %18 = call i32 @rnd_avg32(i32 noundef %15, i32 noundef %17)
  %19 = load ptr, ptr %5, align 8, !tbaa !45
  store i32 %18, ptr %19, align 4, !tbaa !38
  %20 = load ptr, ptr %5, align 8, !tbaa !45
  %21 = getelementptr inbounds i8, ptr %20, i64 4
  %22 = load i32, ptr %21, align 4, !tbaa !38
  %23 = load ptr, ptr %6, align 8, !tbaa !45
  %24 = getelementptr inbounds i8, ptr %23, i64 4
  %25 = load i32, ptr %24, align 1, !tbaa !50
  %26 = call i32 @rnd_avg32(i32 noundef %22, i32 noundef %25)
  %27 = load ptr, ptr %5, align 8, !tbaa !45
  %28 = getelementptr inbounds i8, ptr %27, i64 4
  store i32 %26, ptr %28, align 4, !tbaa !38
  %29 = load ptr, ptr %5, align 8, !tbaa !45
  %30 = getelementptr inbounds i8, ptr %29, i64 8
  %31 = load i32, ptr %30, align 4, !tbaa !38
  %32 = load ptr, ptr %6, align 8, !tbaa !45
  %33 = getelementptr inbounds i8, ptr %32, i64 8
  %34 = load i32, ptr %33, align 1, !tbaa !50
  %35 = call i32 @rnd_avg32(i32 noundef %31, i32 noundef %34)
  %36 = load ptr, ptr %5, align 8, !tbaa !45
  %37 = getelementptr inbounds i8, ptr %36, i64 8
  store i32 %35, ptr %37, align 4, !tbaa !38
  %38 = load ptr, ptr %5, align 8, !tbaa !45
  %39 = getelementptr inbounds i8, ptr %38, i64 12
  %40 = load i32, ptr %39, align 4, !tbaa !38
  %41 = load ptr, ptr %6, align 8, !tbaa !45
  %42 = getelementptr inbounds i8, ptr %41, i64 12
  %43 = load i32, ptr %42, align 1, !tbaa !50
  %44 = call i32 @rnd_avg32(i32 noundef %40, i32 noundef %43)
  %45 = load ptr, ptr %5, align 8, !tbaa !45
  %46 = getelementptr inbounds i8, ptr %45, i64 12
  store i32 %44, ptr %46, align 4, !tbaa !38
  %47 = load i64, ptr %7, align 8, !tbaa !47
  %48 = load ptr, ptr %6, align 8, !tbaa !45
  %49 = getelementptr inbounds i8, ptr %48, i64 %47
  store ptr %49, ptr %6, align 8, !tbaa !45
  %50 = load i64, ptr %7, align 8, !tbaa !47
  %51 = load ptr, ptr %5, align 8, !tbaa !45
  %52 = getelementptr inbounds i8, ptr %51, i64 %50
  store ptr %52, ptr %5, align 8, !tbaa !45
  br label %53

53:                                               ; preds = %13
  %54 = load i32, ptr %9, align 4, !tbaa !38
  %55 = add nsw i32 %54, 1
  store i32 %55, ptr %9, align 4, !tbaa !38
  br label %10, !llvm.loop !65

56:                                               ; preds = %10
  call void @llvm.lifetime.end.p0(i64 4, ptr %9) #7
  ret void
}