; Function Attrs: nofree norecurse nosync nounwind memory(argmem: readwrite) uwtable
define internal void @avg_pixels16x16_c(ptr noundef captures(none) %0, ptr noundef readonly captures(none) %1, i64 noundef %2, i32 %3) #1 {
  br label %5

5:                                                ; preds = %4, %5
  %.021 = phi i32 [ 0, %4 ], [ %42, %5 ]
  %.01720 = phi ptr [ %0, %4 ], [ %41, %5 ]
  %.01819 = phi ptr [ %1, %4 ], [ %40, %5 ]
  %6 = load i32, ptr %.01720, align 4, !tbaa !54
  %7 = load i32, ptr %.01819, align 1, !tbaa !40
  %8 = or i32 %7, %6
  %9 = xor i32 %7, %6
  %10 = lshr i32 %9, 1
  %11 = and i32 %10, 2139062143
  %12 = sub i32 %8, %11
  store i32 %12, ptr %.01720, align 4, !tbaa !54
  %13 = getelementptr inbounds nuw i8, ptr %.01720, i64 4
  %14 = load i32, ptr %13, align 4, !tbaa !54
  %15 = getelementptr inbounds nuw i8, ptr %.01819, i64 4
  %16 = load i32, ptr %15, align 1, !tbaa !40
  %17 = or i32 %16, %14
  %18 = xor i32 %16, %14
  %19 = lshr i32 %18, 1
  %20 = and i32 %19, 2139062143
  %21 = sub i32 %17, %20
  store i32 %21, ptr %13, align 4, !tbaa !54
  %22 = getelementptr inbounds nuw i8, ptr %.01720, i64 8
  %23 = load i32, ptr %22, align 4, !tbaa !54
  %24 = getelementptr inbounds nuw i8, ptr %.01819, i64 8
  %25 = load i32, ptr %24, align 1, !tbaa !40
  %26 = or i32 %25, %23
  %27 = xor i32 %25, %23
  %28 = lshr i32 %27, 1
  %29 = and i32 %28, 2139062143
  %30 = sub i32 %26, %29
  store i32 %30, ptr %22, align 4, !tbaa !54
  %31 = getelementptr inbounds nuw i8, ptr %.01720, i64 12
  %32 = load i32, ptr %31, align 4, !tbaa !54
  %33 = getelementptr inbounds nuw i8, ptr %.01819, i64 12
  %34 = load i32, ptr %33, align 1, !tbaa !40
  %35 = or i32 %34, %32
  %36 = xor i32 %34, %32
  %37 = lshr i32 %36, 1
  %38 = and i32 %37, 2139062143
  %39 = sub i32 %35, %38
  store i32 %39, ptr %31, align 4, !tbaa !54
  %40 = getelementptr inbounds i8, ptr %.01819, i64 %2
  %41 = getelementptr inbounds i8, ptr %.01720, i64 %2
  %42 = add nuw nsw i32 %.021, 1
  %exitcond.not = icmp eq i32 %42, 16
  br i1 %exitcond.not, label %43, label %5, !llvm.loop !57

43:                                               ; preds = %5
  ret void
}